target datalayout = "e-m:e-p270:32:32-p271:32:32-p272:64:64-i64:64-i128:128-f80:128-n8:16:32:64-S128"
target triple = "x86_64-pc-linux-gnu"

%struct.SDL_Keyboard = type { ptr, i16, [512 x i8], [512 x i8], ptr, i32, i8, i64, i32 }
%union.SDL_Event = type { %struct.SDL_MouseWheelEvent, [72 x i8] }
%struct.SDL_MouseWheelEvent = type { i32, i32, i64, i32, i32, float, float, i32, float, float, i32, i32 }
%struct.SDL_Window = type { i32, ptr, ptr, i32, i32, i32, i32, i32, i32, i32, i32, float, float, i32, i32, i64, i64, float, i8, i8, i32, i32, %struct.SDL_Rect, %struct.SDL_Rect, %struct.SDL_Rect, i8, i8, i8, %struct.SDL_DisplayMode, %struct.SDL_DisplayMode, %struct.SDL_HDROutputProperties, float, ptr, i8, i8, i8, i8, i8, i8, i8, i8, i8, i32, i32, i32, i32, %struct.SDL_Rect, i32, i8, %struct.SDL_Rect, i32, %struct.SDL_Rect, ptr, ptr, i32, float, i32, i32, ptr, ptr, ptr, ptr, ptr, ptr, ptr, ptr, ptr }
%struct.SDL_DisplayMode = type { i32, i32, i32, i32, float, float, i32, i32, ptr }
%struct.SDL_HDROutputProperties = type { float, float }
%struct.SDL_Rect = type { i32, i32, i32, i32 }
%struct.SDL_CommonEvent = type { i32, i32, i64 }
%struct.SDL_TextInputEvent = type { i32, i32, i64, i32, ptr }

@SDL_keyboard = internal global %struct.SDL_Keyboard zeroinitializer, align 8

; Function Attrs: nounwind uwtable
define hidden void @SDL_SendKeyboardText(ptr noundef %0) #0 {
  %2 = alloca ptr, align 8
  %3 = alloca ptr, align 8
  %4 = alloca i32, align 4
  %5 = alloca %union.SDL_Event, align 8
  store ptr %0, ptr %2, align 8
  call void @llvm.lifetime.start.p0(i64 8, ptr %3) #6
  store ptr @SDL_keyboard, ptr %3, align 8
  %6 = load ptr, ptr %3, align 8
  %7 = getelementptr inbounds nuw %struct.SDL_Keyboard, ptr %6, i32 0, i32 0
  %8 = load ptr, ptr %7, align 8
  %9 = icmp ne ptr %8, null
  br i1 %9, label %10, label %15

10:                                               ; preds = %1
  %11 = load ptr, ptr %3, align 8
  %12 = getelementptr inbounds nuw %struct.SDL_Keyboard, ptr %11, i32 0, i32 0
  %13 = load ptr, ptr %12, align 8
  %14 = call zeroext i1 @SDL_TextInputActive_REAL(ptr noundef %13)
  br i1 %14, label %16, label %15

15:                                               ; preds = %10, %1
  store i32 1, ptr %4, align 4
  br label %62

16:                                               ; preds = %10
  %17 = load ptr, ptr %2, align 8
  %18 = icmp ne ptr %17, null
  br i1 %18, label %19, label %23

19:                                               ; preds = %16
  %20 = load ptr, ptr %2, align 8
  %21 = load i8, ptr %20, align 1
  %22 = icmp ne i8 %21, 0
  br i1 %22, label %24, label %23

23:                                               ; preds = %19, %16
  store i32 1, ptr %4, align 4
  br label %62

24:                                               ; preds = %19
  %25 = load ptr, ptr %2, align 8
  %26 = load i8, ptr %25, align 1
  %27 = zext i8 %26 to i32
  %28 = call i32 @SDL_iscntrl_REAL(i32 noundef %27)
  %29 = icmp ne i32 %28, 0
  br i1 %29, label %30, label %31

30:                                               ; preds = %24
  store i32 1, ptr %4, align 4
  br label %62

31:                                               ; preds = %24
  %32 = call zeroext i1 @SDL_EventEnabled_REAL(i32 noundef 771)
  br i1 %32, label %33, label %61

33:                                               ; preds = %31
  call void @llvm.lifetime.start.p0(i64 128, ptr %5) #6
  store i32 771, ptr %5, align 8
  %34 = getelementptr inbounds nuw %struct.SDL_CommonEvent, ptr %5, i32 0, i32 2
  store i64 0, ptr %34, align 8
  %35 = load ptr, ptr %3, align 8
  %36 = getelementptr inbounds nuw %struct.SDL_Keyboard, ptr %35, i32 0, i32 0
  %37 = load ptr, ptr %36, align 8
  %38 = icmp ne ptr %37, null
  br i1 %38, label %39, label %45

39:                                               ; preds = %33
  %40 = load ptr, ptr %3, align 8
  %41 = getelementptr inbounds nuw %struct.SDL_Keyboard, ptr %40, i32 0, i32 0
  %42 = load ptr, ptr %41, align 8
  %43 = getelementptr inbounds nuw %struct.SDL_Window, ptr %42, i32 0, i32 0
  %44 = load i32, ptr %43, align 8
  br label %46

45:                                               ; preds = %33
  br label %46

46:                                               ; preds = %45, %39
  %47 = phi i32 [ %44, %39 ], [ 0, %45 ]
  %48 = getelementptr inbounds nuw %struct.SDL_TextInputEvent, ptr %5, i32 0, i32 3
  store i32 %47, ptr %48, align 8
  %49 = load ptr, ptr %2, align 8
  %50 = call ptr @SDL_CreateTemporaryString(ptr noundef %49)
  %51 = getelementptr inbounds nuw %struct.SDL_TextInputEvent, ptr %5, i32 0, i32 4
  store ptr %50, ptr %51, align 8
  %52 = getelementptr inbounds nuw %struct.SDL_TextInputEvent, ptr %5, i32 0, i32 4
  %53 = load ptr, ptr %52, align 8
  %54 = icmp ne ptr %53, null
  br i1 %54, label %56, label %55

55:                                               ; preds = %46
  store i32 1, ptr %4, align 4
  br label %58

56:                                               ; preds = %46
  %57 = call zeroext i1 @SDL_PushEvent_REAL(ptr noundef %5)
  store i32 0, ptr %4, align 4
  br label %58

58:                                               ; preds = %56, %55
  call void @llvm.lifetime.end.p0(i64 128, ptr %5) #6
  %59 = load i32, ptr %4, align 4
  switch i32 %59, label %62 [
    i32 0, label %60
  ]

60:                                               ; preds = %58
  br label %61

61:                                               ; preds = %60, %31
  store i32 0, ptr %4, align 4
  br label %62

62:                                               ; preds = %61, %58, %30, %23, %15
  call void @llvm.lifetime.end.p0(i64 8, ptr %3) #6
  %63 = load i32, ptr %4, align 4
  switch i32 %63, label %65 [
    i32 0, label %64
    i32 1, label %64
  ]

64:                                               ; preds = %62, %62
  ret void

65:                                               ; preds = %62
  unreachable
}