; Function Attrs: nounwind uwtable
define hidden void @SDL_SendKeyboardText(ptr noundef %0) local_unnamed_addr #0 {
  %2 = alloca %union.SDL_Event, align 8
  %3 = load ptr, ptr @SDL_keyboard, align 8
  %.not = icmp eq ptr %3, null
  br i1 %.not, label %25, label %4

4:                                                ; preds = %1
  %5 = tail call zeroext i1 @SDL_TextInputActive_REAL(ptr noundef nonnull %3) #13
  %.not12 = icmp ne ptr %0, null
  %or.cond.not = and i1 %.not12, %5
  br i1 %or.cond.not, label %6, label %25

6:                                                ; preds = %4
  %7 = load i8, ptr %0, align 1
  %.not13 = icmp eq i8 %7, 0
  br i1 %.not13, label %25, label %8

8:                                                ; preds = %6
  %9 = zext i8 %7 to i32
  %10 = tail call i32 @SDL_iscntrl_REAL(i32 noundef %9) #13
  %.not14 = icmp eq i32 %10, 0
  br i1 %.not14, label %11, label %25

11:                                               ; preds = %8
  %12 = tail call zeroext i1 @SDL_EventEnabled_REAL(i32 noundef 771) #13
  br i1 %12, label %13, label %25

13:                                               ; preds = %11
  call void @llvm.lifetime.start.p0(i64 128, ptr nonnull %2) #13
  store i32 771, ptr %2, align 8
  %14 = getelementptr inbounds nuw i8, ptr %2, i64 8
  store i64 0, ptr %14, align 8
  %15 = load ptr, ptr @SDL_keyboard, align 8
  %.not15 = icmp eq ptr %15, null
  br i1 %.not15, label %18, label %16

16:                                               ; preds = %13
  %17 = load i32, ptr %15, align 8
  br label %18

18:                                               ; preds = %13, %16
  %19 = phi i32 [ %17, %16 ], [ 0, %13 ]
  %20 = getelementptr inbounds nuw i8, ptr %2, i64 16
  store i32 %19, ptr %20, align 8
  %21 = tail call ptr @SDL_CreateTemporaryString(ptr noundef nonnull %0) #13
  %22 = getelementptr inbounds nuw i8, ptr %2, i64 24
  store ptr %21, ptr %22, align 8
  %.not16.not = icmp eq ptr %21, null
  br i1 %.not16.not, label %.sink.split, label %23

23:                                               ; preds = %18
  %24 = call zeroext i1 @SDL_PushEvent_REAL(ptr noundef nonnull %2) #13
  br label %.sink.split

.sink.split:                                      ; preds = %18, %23
  call void @llvm.lifetime.end.p0(i64 128, ptr nonnull %2) #13
  br label %25

25:                                               ; preds = %.sink.split, %11, %8, %6, %1, %4
  ret void
}